; Function Attrs: mustprogress nofree norecurse nosync nounwind willreturn memory(argmem: readwrite, inaccessiblemem: readwrite) uwtable
define void @_ZN18duckdb_fastpforlib8internal12__fastpack12EPKtPt(ptr noalias noundef readonly captures(none) %0, ptr noalias noundef writeonly captures(none) initializes((0, 24)) %1) local_unnamed_addr #2 {
  tail call void @llvm.experimental.noalias.scope.decl(metadata !10448)
  tail call void @llvm.experimental.noalias.scope.decl(metadata !10451)
  %3 = load i16, ptr %0, align 2, !tbaa !3, !alias.scope !10448, !noalias !10451
  %4 = and i16 %3, 4095
  tail call void @llvm.experimental.noalias.scope.decl(metadata !10453)
  tail call void @llvm.experimental.noalias.scope.decl(metadata !10456)
  %5 = getelementptr inbounds nuw i8, ptr %0, i64 2
  %6 = load i16, ptr %5, align 2, !tbaa !3, !alias.scope !10458, !noalias !10459
  %7 = shl i16 %6, 12
  %8 = or disjoint i16 %7, %4
  store i16 %8, ptr %1, align 2, !tbaa !3, !alias.scope !10459, !noalias !10458
  %9 = getelementptr inbounds nuw i8, ptr %1, i64 2
  %10 = lshr i16 %6, 4
  %11 = and i16 %10, 255
  tail call void @llvm.experimental.noalias.scope.decl(metadata !10460)
  tail call void @llvm.experimental.noalias.scope.decl(metadata !10463)
  %12 = getelementptr inbounds nuw i8, ptr %0, i64 4
  %13 = load i16, ptr %12, align 2, !tbaa !3, !alias.scope !10465, !noalias !10466
  %14 = shl i16 %13, 8
  %15 = or disjoint i16 %14, %11
  store i16 %15, ptr %9, align 2, !tbaa !3, !alias.scope !10466, !noalias !10465
  %16 = getelementptr inbounds nuw i8, ptr %1, i64 4
  %17 = lshr i16 %13, 8
  %18 = and i16 %17, 15
  tail call void @llvm.experimental.noalias.scope.decl(metadata !10467)
  tail call void @llvm.experimental.noalias.scope.decl(metadata !10470)
  %19 = getelementptr inbounds nuw i8, ptr %0, i64 6
  %20 = load i16, ptr %19, align 2, !tbaa !3, !alias.scope !10472, !noalias !10473
  %21 = shl i16 %20, 4
  %22 = or disjoint i16 %21, %18
  store i16 %22, ptr %16, align 2, !tbaa !3, !alias.scope !10473, !noalias !10472
  %23 = getelementptr inbounds nuw i8, ptr %1, i64 6
  tail call void @llvm.experimental.noalias.scope.decl(metadata !10474)
  tail call void @llvm.experimental.noalias.scope.decl(metadata !10477)
  %24 = getelementptr inbounds nuw i8, ptr %0, i64 8
  %25 = load i16, ptr %24, align 2, !tbaa !3, !alias.scope !10479, !noalias !10480
  %26 = and i16 %25, 4095
  tail call void @llvm.experimental.noalias.scope.decl(metadata !10481)
  tail call void @llvm.experimental.noalias.scope.decl(metadata !10484)
  %27 = getelementptr inbounds nuw i8, ptr %0, i64 10
  %28 = load i16, ptr %27, align 2, !tbaa !3, !alias.scope !10486, !noalias !10487
  %29 = shl i16 %28, 12
  %30 = or disjoint i16 %29, %26
  store i16 %30, ptr %23, align 2, !tbaa !3, !alias.scope !10487, !noalias !10486
  %31 = getelementptr inbounds nuw i8, ptr %1, i64 8
  %32 = lshr i16 %28, 4
  %33 = and i16 %32, 255
  tail call void @llvm.experimental.noalias.scope.decl(metadata !10488)
  tail call void @llvm.experimental.noalias.scope.decl(metadata !10491)
  %34 = getelementptr inbounds nuw i8, ptr %0, i64 12
  %35 = load i16, ptr %34, align 2, !tbaa !3, !alias.scope !10493, !noalias !10494
  %36 = shl i16 %35, 8
  %37 = or disjoint i16 %36, %33
  store i16 %37, ptr %31, align 2, !tbaa !3, !alias.scope !10494, !noalias !10493
  %38 = getelementptr inbounds nuw i8, ptr %1, i64 10
  %39 = lshr i16 %35, 8
  %40 = and i16 %39, 15
  tail call void @llvm.experimental.noalias.scope.decl(metadata !10495)
  tail call void @llvm.experimental.noalias.scope.decl(metadata !10498)
  %41 = getelementptr inbounds nuw i8, ptr %0, i64 14
  %42 = load i16, ptr %41, align 2, !tbaa !3, !alias.scope !10500, !noalias !10501
  %43 = shl i16 %42, 4
  %44 = or disjoint i16 %43, %40
  store i16 %44, ptr %38, align 2, !tbaa !3, !alias.scope !10501, !noalias !10500
  %45 = getelementptr inbounds nuw i8, ptr %1, i64 12
  tail call void @llvm.experimental.noalias.scope.decl(metadata !10502)
  tail call void @llvm.experimental.noalias.scope.decl(metadata !10505)
  %46 = getelementptr inbounds nuw i8, ptr %0, i64 16
  %47 = load i16, ptr %46, align 2, !tbaa !3, !alias.scope !10507, !noalias !10508
  %48 = and i16 %47, 4095
  tail call void @llvm.experimental.noalias.scope.decl(metadata !10509)
  tail call void @llvm.experimental.noalias.scope.decl(metadata !10512)
  %49 = getelementptr inbounds nuw i8, ptr %0, i64 18
  %50 = load i16, ptr %49, align 2, !tbaa !3, !alias.scope !10514, !noalias !10515
  %51 = shl i16 %50, 12
  %52 = or disjoint i16 %51, %48
  store i16 %52, ptr %45, align 2, !tbaa !3, !alias.scope !10515, !noalias !10514
  %53 = getelementptr inbounds nuw i8, ptr %1, i64 14
  %54 = lshr i16 %50, 4
  %55 = and i16 %54, 255
  tail call void @llvm.experimental.noalias.scope.decl(metadata !10516)
  tail call void @llvm.experimental.noalias.scope.decl(metadata !10519)
  %56 = getelementptr inbounds nuw i8, ptr %0, i64 20
  %57 = load i16, ptr %56, align 2, !tbaa !3, !alias.scope !10521, !noalias !10522
  %58 = shl i16 %57, 8
  %59 = or disjoint i16 %58, %55
  store i16 %59, ptr %53, align 2, !tbaa !3, !alias.scope !10522, !noalias !10521
  %60 = getelementptr inbounds nuw i8, ptr %1, i64 16
  %61 = lshr i16 %57, 8
  %62 = and i16 %61, 15
  tail call void @llvm.experimental.noalias.scope.decl(metadata !10523)
  tail call void @llvm.experimental.noalias.scope.decl(metadata !10526)
  %63 = getelementptr inbounds nuw i8, ptr %0, i64 22
  %64 = load i16, ptr %63, align 2, !tbaa !3, !alias.scope !10528, !noalias !10529
  %65 = shl i16 %64, 4
  %66 = or disjoint i16 %65, %62
  store i16 %66, ptr %60, align 2, !tbaa !3, !alias.scope !10529, !noalias !10528
  %67 = getelementptr inbounds nuw i8, ptr %1, i64 18
  tail call void @llvm.experimental.noalias.scope.decl(metadata !10530)
  tail call void @llvm.experimental.noalias.scope.decl(metadata !10533)
  %68 = getelementptr inbounds nuw i8, ptr %0, i64 24
  %69 = load i16, ptr %68, align 2, !tbaa !3, !alias.scope !10535, !noalias !10536
  %70 = and i16 %69, 4095
  tail call void @llvm.experimental.noalias.scope.decl(metadata !10537)
  tail call void @llvm.experimental.noalias.scope.decl(metadata !10540)
  %71 = getelementptr inbounds nuw i8, ptr %0, i64 26
  %72 = load i16, ptr %71, align 2, !tbaa !3, !alias.scope !10542, !noalias !10543
  %73 = shl i16 %72, 12
  %74 = or disjoint i16 %73, %70
  store i16 %74, ptr %67, align 2, !tbaa !3, !alias.scope !10543, !noalias !10542
  %75 = getelementptr inbounds nuw i8, ptr %1, i64 20
  %76 = lshr i16 %72, 4
  %77 = and i16 %76, 255
  tail call void @llvm.experimental.noalias.scope.decl(metadata !10544)
  tail call void @llvm.experimental.noalias.scope.decl(metadata !10547)
  %78 = getelementptr inbounds nuw i8, ptr %0, i64 28
  %79 = load i16, ptr %78, align 2, !tbaa !3, !alias.scope !10549, !noalias !10550
  %80 = shl i16 %79, 8
  %81 = or disjoint i16 %80, %77
  store i16 %81, ptr %75, align 2, !tbaa !3, !alias.scope !10550, !noalias !10549
  %82 = getelementptr inbounds nuw i8, ptr %1, i64 22
  %83 = lshr i16 %79, 8
  %84 = and i16 %83, 15
  tail call void @llvm.experimental.noalias.scope.decl(metadata !10551)
  tail call void @llvm.experimental.noalias.scope.decl(metadata !10554)
  %85 = getelementptr inbounds nuw i8, ptr %0, i64 30
  %86 = load i16, ptr %85, align 2, !tbaa !3, !alias.scope !10556, !noalias !10557
  %87 = shl i16 %86, 4
  %88 = or disjoint i16 %87, %84
  store i16 %88, ptr %82, align 2, !tbaa !3, !alias.scope !10557, !noalias !10556
  ret void
}